target datalayout = "e-m:e-p270:32:32-p271:32:32-p272:64:64-i64:64-i128:128-f80:128-n8:16:32:64-S128"
target triple = "x86_64-pc-linux-gnu"

; Function Attrs: nounwind uwtable
define i32 @wc_SignatureGetSize(i32 noundef %0, ptr noundef %1, i32 noundef %2) #0 {
  %4 = alloca i32, align 4
  %5 = alloca ptr, align 8
  %6 = alloca i32, align 4
  %7 = alloca i32, align 4
  store i32 %0, ptr %4, align 4, !tbaa !3
  store ptr %1, ptr %5, align 8, !tbaa !7
  store i32 %2, ptr %6, align 4, !tbaa !3
  call void @llvm.lifetime.start.p0(i64 4, ptr %7) #6
  store i32 -173, ptr %7, align 4, !tbaa !3
  %8 = load i32, ptr %4, align 4, !tbaa !3
  switch i32 %8, label %34 [
    i32 1, label %9
    i32 3, label %21
    i32 2, label %21
    i32 0, label %33
  ]

9:                                                ; preds = %3
  %10 = load i32, ptr %6, align 4, !tbaa !3
  %11 = zext i32 %10 to i64
  %12 = icmp uge i64 %11, 4208
  br i1 %12, label %13, label %16

13:                                               ; preds = %9
  %14 = load ptr, ptr %5, align 8, !tbaa !7
  %15 = call i32 @wc_ecc_sig_size(ptr noundef %14)
  store i32 %15, ptr %7, align 4, !tbaa !3
  br label %20

16:                                               ; preds = %9
  br label %17

17:                                               ; preds = %16
  br label %18

18:                                               ; preds = %17
  br label %19

19:                                               ; preds = %18
  br label %20

20:                                               ; preds = %19, %13
  br label %35

21:                                               ; preds = %3, %3
  %22 = load i32, ptr %6, align 4, !tbaa !3
  %23 = zext i32 %22 to i64
  %24 = icmp uge i64 %23, 8368
  br i1 %24, label %25, label %28

25:                                               ; preds = %21
  %26 = load ptr, ptr %5, align 8, !tbaa !7
  %27 = call i32 @wc_RsaEncryptSize(ptr noundef %26)
  store i32 %27, ptr %7, align 4, !tbaa !3
  br label %32

28:                                               ; preds = %21
  br label %29

29:                                               ; preds = %28
  br label %30

30:                                               ; preds = %29
  br label %31

31:                                               ; preds = %30
  br label %32

32:                                               ; preds = %31, %25
  br label %35

33:                                               ; preds = %3
  br label %34

34:                                               ; preds = %3, %33
  store i32 -173, ptr %7, align 4, !tbaa !3
  br label %35

35:                                               ; preds = %34, %32, %20
  %36 = load i32, ptr %7, align 4, !tbaa !3
  call void @llvm.lifetime.end.p0(i64 4, ptr %7) #6
  ret i32 %36
}

; Function Attrs: nounwind uwtable
define i32 @wc_SignatureVerifyHash(i32 noundef %0, i32 noundef %1, ptr noundef %2, i32 noundef %3, ptr noundef %4, i32 noundef %5, ptr noundef %6, i32 noundef %7) #0 {
  %9 = alloca i32, align 4
  %10 = alloca i32, align 4
  %11 = alloca i32, align 4
  %12 = alloca ptr, align 8
  %13 = alloca i32, align 4
  %14 = alloca ptr, align 8
  %15 = alloca i32, align 4
  %16 = alloca ptr, align 8
  %17 = alloca i32, align 4
  %18 = alloca i32, align 4
  %19 = alloca i32, align 4
  %20 = alloca i32, align 4
  %21 = alloca i32, align 4
  %22 = alloca [512 x i8], align 64
  %23 = alloca ptr, align 8
  store i32 %0, ptr %10, align 4, !tbaa !3
  store i32 %1, ptr %11, align 4, !tbaa !3
  store ptr %2, ptr %12, align 8, !tbaa !9
  store i32 %3, ptr %13, align 4, !tbaa !3
  store ptr %4, ptr %14, align 8, !tbaa !9
  store i32 %5, ptr %15, align 4, !tbaa !3
  store ptr %6, ptr %16, align 8, !tbaa !7
  store i32 %7, ptr %17, align 4, !tbaa !3
  call void @llvm.lifetime.start.p0(i64 4, ptr %18) #6
  %24 = load ptr, ptr %12, align 8, !tbaa !9
  %25 = icmp eq ptr %24, null
  br i1 %25, label %41, label %26

26:                                               ; preds = %8
  %27 = load i32, ptr %13, align 4, !tbaa !3
  %28 = icmp eq i32 %27, 0
  br i1 %28, label %41, label %29

29:                                               ; preds = %26
  %30 = load ptr, ptr %14, align 8, !tbaa !9
  %31 = icmp eq ptr %30, null
  br i1 %31, label %41, label %32

32:                                               ; preds = %29
  %33 = load i32, ptr %15, align 4, !tbaa !3
  %34 = icmp eq i32 %33, 0
  br i1 %34, label %41, label %35

35:                                               ; preds = %32
  %36 = load ptr, ptr %16, align 8, !tbaa !7
  %37 = icmp eq ptr %36, null
  br i1 %37, label %41, label %38

38:                                               ; preds = %35
  %39 = load i32, ptr %17, align 4, !tbaa !3
  %40 = icmp eq i32 %39, 0
  br i1 %40, label %41, label %42

41:                                               ; preds = %38, %35, %32, %29, %26, %8
  store i32 -173, ptr %9, align 4
  store i32 1, ptr %19, align 4
  br label %153

42:                                               ; preds = %38
  %43 = load i32, ptr %15, align 4, !tbaa !3
  %44 = load i32, ptr %11, align 4, !tbaa !3
  %45 = load ptr, ptr %16, align 8, !tbaa !7
  %46 = load i32, ptr %17, align 4, !tbaa !3
  %47 = call i32 @wc_SignatureGetSize(i32 noundef %44, ptr noundef %45, i32 noundef %46)
  %48 = icmp sgt i32 %43, %47
  br i1 %48, label %49, label %53

49:                                               ; preds = %42
  br label %50

50:                                               ; preds = %49
  br label %51

51:                                               ; preds = %50
  br label %52

52:                                               ; preds = %51
  store i32 -173, ptr %9, align 4
  store i32 1, ptr %19, align 4
  br label %153

53:                                               ; preds = %42
  %54 = load i32, ptr %10, align 4, !tbaa !3
  %55 = call i32 @wc_HashGetDigestSize(i32 noundef %54)
  store i32 %55, ptr %18, align 4, !tbaa !3
  %56 = load i32, ptr %18, align 4, !tbaa !3
  %57 = icmp slt i32 %56, 0
  br i1 %57, label %58, label %63

58:                                               ; preds = %53
  br label %59

59:                                               ; preds = %58
  br label %60

60:                                               ; preds = %59
  br label %61

61:                                               ; preds = %60
  %62 = load i32, ptr %18, align 4, !tbaa !3
  store i32 %62, ptr %9, align 4
  store i32 1, ptr %19, align 4
  br label %153

63:                                               ; preds = %53
  store i32 0, ptr %18, align 4, !tbaa !3
  %64 = load i32, ptr %11, align 4, !tbaa !3
  switch i32 %64, label %150 [
    i32 1, label %65
    i32 3, label %88
    i32 2, label %88
    i32 0, label %149
  ]

65:                                               ; preds = %63
  call void @llvm.lifetime.start.p0(i64 4, ptr %20) #6
  store i32 0, ptr %20, align 4, !tbaa !3
  br label %66

66:                                               ; preds = %77, %65
  %67 = load i32, ptr %18, align 4, !tbaa !3
  %68 = icmp sge i32 %67, 0
  br i1 %68, label %69, label %76

69:                                               ; preds = %66
  %70 = load ptr, ptr %14, align 8, !tbaa !9
  %71 = load i32, ptr %15, align 4, !tbaa !3
  %72 = load ptr, ptr %12, align 8, !tbaa !9
  %73 = load i32, ptr %13, align 4, !tbaa !3
  %74 = load ptr, ptr %16, align 8, !tbaa !7
  %75 = call i32 @wc_ecc_verify_hash(ptr noundef %70, i32 noundef %71, ptr noundef %72, i32 noundef %73, ptr noundef %20, ptr noundef %74)
  store i32 %75, ptr %18, align 4, !tbaa !3
  br label %76

76:                                               ; preds = %69, %66
  br label %77

77:                                               ; preds = %76
  %78 = load i32, ptr %18, align 4, !tbaa !3
  %79 = icmp eq i32 %78, -108
  br i1 %79, label %66, label %80, !llvm.loop !11

80:                                               ; preds = %77
  %81 = load i32, ptr %18, align 4, !tbaa !3
  %82 = icmp ne i32 %81, 0
  br i1 %82, label %86, label %83

83:                                               ; preds = %80
  %84 = load i32, ptr %20, align 4, !tbaa !3
  %85 = icmp ne i32 %84, 1
  br i1 %85, label %86, label %87

86:                                               ; preds = %83, %80
  store i32 -229, ptr %18, align 4, !tbaa !3
  br label %87

87:                                               ; preds = %86, %83
  store i32 6, ptr %19, align 4
  call void @llvm.lifetime.end.p0(i64 4, ptr %20) #6
  br label %151

88:                                               ; preds = %63, %63
  call void @llvm.lifetime.start.p0(i64 4, ptr %21) #6
  %89 = load i32, ptr %13, align 4, !tbaa !3
  store i32 %89, ptr %21, align 4, !tbaa !3
  call void @llvm.lifetime.start.p0(i64 512, ptr %22) #6
  %90 = load i32, ptr %21, align 4, !tbaa !3
  %91 = load i32, ptr %15, align 4, !tbaa !3
  %92 = icmp ult i32 %90, %91
  br i1 %92, label %93, label %95

93:                                               ; preds = %88
  %94 = load i32, ptr %15, align 4, !tbaa !3
  store i32 %94, ptr %21, align 4, !tbaa !3
  br label %95

95:                                               ; preds = %93, %88
  %96 = load i32, ptr %21, align 4, !tbaa !3
  %97 = zext i32 %96 to i64
  %98 = icmp ule i64 %97, 512
  br i1 %98, label %99, label %140

99:                                               ; preds = %95
  call void @llvm.lifetime.start.p0(i64 8, ptr %23) #6
  store ptr null, ptr %23, align 8, !tbaa !9
  %100 = getelementptr inbounds [512 x i8], ptr %22, i64 0, i64 0
  %101 = load i32, ptr %21, align 4, !tbaa !3
  %102 = zext i32 %101 to i64
  call void @llvm.memset.p0.i64(ptr align 64 %100, i8 0, i64 %102, i1 false)
  %103 = getelementptr inbounds [512 x i8], ptr %22, i64 0, i64 0
  %104 = load ptr, ptr %14, align 8, !tbaa !9
  %105 = load i32, ptr %15, align 4, !tbaa !3
  %106 = zext i32 %105 to i64
  call void @llvm.memcpy.p0.p0.i64(ptr align 64 %103, ptr align 1 %104, i64 %106, i1 false)
  br label %107

107:                                              ; preds = %116, %99
  %108 = load i32, ptr %18, align 4, !tbaa !3
  %109 = icmp sge i32 %108, 0
  br i1 %109, label %110, label %115

110:                                              ; preds = %107
  %111 = getelementptr inbounds [512 x i8], ptr %22, i64 0, i64 0
  %112 = load i32, ptr %15, align 4, !tbaa !3
  %113 = load ptr, ptr %16, align 8, !tbaa !7
  %114 = call i32 @wc_RsaSSL_VerifyInline(ptr noundef %111, i32 noundef %112, ptr noundef %23, ptr noundef %113)
  store i32 %114, ptr %18, align 4, !tbaa !3
  br label %115

115:                                              ; preds = %110, %107
  br label %116

116:                                              ; preds = %115
  %117 = load i32, ptr %18, align 4, !tbaa !3
  %118 = icmp eq i32 %117, -108
  br i1 %118, label %107, label %119, !llvm.loop !13

119:                                              ; preds = %116
  %120 = load i32, ptr %18, align 4, !tbaa !3
  %121 = icmp sge i32 %120, 0
  br i1 %121, label %122, label %139

122:                                              ; preds = %119
  %123 = load ptr, ptr %23, align 8, !tbaa !9
  %124 = icmp ne ptr %123, null
  br i1 %124, label %125, label %139

125:                                              ; preds = %122
  %126 = load i32, ptr %18, align 4, !tbaa !3
  %127 = load i32, ptr %13, align 4, !tbaa !3
  %128 = icmp eq i32 %126, %127
  br i1 %128, label %129, label %137

129:                                              ; preds = %125
  %130 = load ptr, ptr %23, align 8, !tbaa !9
  %131 = load ptr, ptr %12, align 8, !tbaa !9
  %132 = load i32, ptr %13, align 4, !tbaa !3
  %133 = zext i32 %132 to i64
  %134 = call i32 @memcmp(ptr noundef %130, ptr noundef %131, i64 noundef %133) #7
  %135 = icmp eq i32 %134, 0
  br i1 %135, label %136, label %137

136:                                              ; preds = %129
  store i32 0, ptr %18, align 4, !tbaa !3
  br label %138

137:                                              ; preds = %129, %125
  store i32 -229, ptr %18, align 4, !tbaa !3
  br label %138

138:                                              ; preds = %137, %136
  br label %139

139:                                              ; preds = %138, %122, %119
  call void @llvm.lifetime.end.p0(i64 8, ptr %23) #6
  br label %141

140:                                              ; preds = %95
  store i32 -125, ptr %18, align 4, !tbaa !3
  br label %141

141:                                              ; preds = %140, %139
  %142 = load i32, ptr %18, align 4, !tbaa !3
  %143 = icmp ne i32 %142, 0
  br i1 %143, label %144, label %148

144:                                              ; preds = %141
  br label %145

145:                                              ; preds = %144
  br label %146

146:                                              ; preds = %145
  br label %147

147:                                              ; preds = %146
  br label %148

148:                                              ; preds = %147, %141
  store i32 6, ptr %19, align 4
  call void @llvm.lifetime.end.p0(i64 512, ptr %22) #6
  call void @llvm.lifetime.end.p0(i64 4, ptr %21) #6
  br label %151

149:                                              ; preds = %63
  br label %150

150:                                              ; preds = %63, %149
  store i32 -173, ptr %18, align 4, !tbaa !3
  br label %151

151:                                              ; preds = %150, %148, %87
  %152 = load i32, ptr %18, align 4, !tbaa !3
  store i32 %152, ptr %9, align 4
  store i32 1, ptr %19, align 4
  br label %153

153:                                              ; preds = %151, %61, %52, %41
  call void @llvm.lifetime.end.p0(i64 4, ptr %18) #6
  %154 = load i32, ptr %9, align 4
  ret i32 %154
}