; Function Attrs: nounwind uwtable
define i32 @wc_SignatureVerifyHash(i32 noundef %0, i32 noundef %1, ptr noundef %2, i32 noundef %3, ptr noundef %4, i32 noundef %5, ptr noundef %6, i32 noundef %7) local_unnamed_addr #0 {
  %9 = alloca i32, align 4
  %10 = alloca [512 x i8], align 64
  %11 = alloca ptr, align 8
  %12 = icmp eq ptr %2, null
  %13 = icmp eq i32 %3, 0
  %or.cond = or i1 %12, %13
  %14 = icmp eq ptr %4, null
  %or.cond3 = or i1 %or.cond, %14
  %15 = icmp eq i32 %5, 0
  %or.cond5 = or i1 %or.cond3, %15
  %16 = icmp eq ptr %6, null
  %or.cond7 = or i1 %or.cond5, %16
  %17 = icmp eq i32 %7, 0
  %or.cond9 = or i1 %or.cond7, %17
  br i1 %or.cond9, label %66, label %18

18:                                               ; preds = %8
  switch i32 %1, label %wc_SignatureGetSize.exit [
    i32 1, label %19
    i32 3, label %23
    i32 2, label %23
  ]

19:                                               ; preds = %18
  %20 = icmp ugt i32 %7, 4207
  br i1 %20, label %21, label %wc_SignatureGetSize.exit

21:                                               ; preds = %19
  %22 = tail call i32 @wc_ecc_sig_size(ptr noundef nonnull %6) #7
  br label %wc_SignatureGetSize.exit

23:                                               ; preds = %18, %18
  %24 = icmp ugt i32 %7, 8367
  br i1 %24, label %25, label %wc_SignatureGetSize.exit

25:                                               ; preds = %23
  %26 = tail call i32 @wc_RsaEncryptSize(ptr noundef nonnull %6) #7
  br label %wc_SignatureGetSize.exit

wc_SignatureGetSize.exit:                         ; preds = %18, %19, %21, %23, %25
  %.0.i = phi i32 [ %26, %25 ], [ -173, %23 ], [ %22, %21 ], [ -173, %19 ], [ -173, %18 ]
  %27 = icmp sgt i32 %5, %.0.i
  br i1 %27, label %66, label %28

28:                                               ; preds = %wc_SignatureGetSize.exit
  %29 = tail call i32 @wc_HashGetDigestSize(i32 noundef %0) #7
  %30 = icmp slt i32 %29, 0
  br i1 %30, label %66, label %31

31:                                               ; preds = %28
  switch i32 %1, label %66 [
    i32 1, label %32
    i32 3, label %43
    i32 2, label %43
  ]

32:                                               ; preds = %31
  call void @llvm.lifetime.start.p0(i64 4, ptr nonnull %9) #7
  store i32 0, ptr %9, align 4, !tbaa !3
  br label %33

33:                                               ; preds = %37, %32
  %34 = phi i1 [ true, %32 ], [ false, %37 ]
  %.054 = phi i32 [ 0, %32 ], [ -108, %37 ]
  br i1 %34, label %35, label %37

35:                                               ; preds = %33
  %36 = call i32 @wc_ecc_verify_hash(ptr noundef %4, i32 noundef %5, ptr noundef %2, i32 noundef %3, ptr noundef nonnull %9, ptr noundef %6) #7
  br label %37

37:                                               ; preds = %33, %35
  %.1 = phi i32 [ %36, %35 ], [ %.054, %33 ]
  %38 = icmp eq i32 %.1, -108
  br i1 %38, label %33, label %39, !llvm.loop !7

39:                                               ; preds = %37
  %40 = icmp ne i32 %.1, 0
  %41 = load i32, ptr %9, align 4
  %42 = icmp ne i32 %41, 1
  %or.cond11 = select i1 %40, i1 true, i1 %42
  %spec.store.select = select i1 %or.cond11, i32 -229, i32 %.1
  call void @llvm.lifetime.end.p0(i64 4, ptr nonnull %9) #7
  br label %66

43:                                               ; preds = %31, %31
  call void @llvm.lifetime.start.p0(i64 512, ptr nonnull %10) #7
  %spec.select = tail call i32 @llvm.umax.i32(i32 %3, i32 %5)
  %44 = icmp ult i32 %spec.select, 513
  br i1 %44, label %45, label %65

45:                                               ; preds = %43
  %46 = zext nneg i32 %spec.select to i64
  call void @llvm.lifetime.start.p0(i64 8, ptr nonnull %11) #7
  store ptr null, ptr %11, align 8, !tbaa !9
  call void @llvm.memset.p0.i64(ptr nonnull align 64 %10, i8 0, i64 %46, i1 false)
  %47 = zext i32 %5 to i64
  call void @llvm.memcpy.p0.p0.i64(ptr nonnull align 64 %10, ptr nonnull align 1 %4, i64 %47, i1 false)
  br label %48

48:                                               ; preds = %52, %45
  %49 = phi i1 [ true, %45 ], [ false, %52 ]
  %.3 = phi i32 [ 0, %45 ], [ -108, %52 ]
  br i1 %49, label %50, label %52

50:                                               ; preds = %48
  %51 = call i32 @wc_RsaSSL_VerifyInline(ptr noundef nonnull %10, i32 noundef %5, ptr noundef nonnull %11, ptr noundef %6) #7
  br label %52

52:                                               ; preds = %48, %50
  %.4 = phi i32 [ %51, %50 ], [ %.3, %48 ]
  %53 = icmp eq i32 %.4, -108
  br i1 %53, label %48, label %54, !llvm.loop !12

54:                                               ; preds = %52
  %55 = icmp sgt i32 %.4, -1
  %56 = load ptr, ptr %11, align 8
  %57 = icmp ne ptr %56, null
  %or.cond13 = select i1 %55, i1 %57, i1 false
  br i1 %or.cond13, label %58, label %64

58:                                               ; preds = %54
  %59 = icmp eq i32 %.4, %3
  br i1 %59, label %60, label %63

60:                                               ; preds = %58
  %61 = zext nneg i32 %3 to i64
  %bcmp = call i32 @bcmp(ptr nonnull %56, ptr %2, i64 %61)
  %62 = icmp eq i32 %bcmp, 0
  br i1 %62, label %64, label %63

63:                                               ; preds = %60, %58
  br label %64

64:                                               ; preds = %60, %63, %54
  %.5 = phi i32 [ -229, %63 ], [ %.4, %54 ], [ 0, %60 ]
  call void @llvm.lifetime.end.p0(i64 8, ptr nonnull %11) #7
  br label %65

65:                                               ; preds = %43, %64
  %.6 = phi i32 [ %.5, %64 ], [ -125, %43 ]
  call void @llvm.lifetime.end.p0(i64 512, ptr nonnull %10) #7
  br label %66

66:                                               ; preds = %39, %65, %31, %28, %wc_SignatureGetSize.exit, %8
  %.055 = phi i32 [ -173, %8 ], [ -173, %wc_SignatureGetSize.exit ], [ %29, %28 ], [ %.6, %65 ], [ %spec.store.select, %39 ], [ -173, %31 ]
  ret i32 %.055
}